
Memory Configuration

Name             Origin             Length             Attributes
*default*        0x0000000000000000 0xffffffffffffffff

Linker script and memory map

                0x0000000000001000                . = 0x1000

.text           0x0000000000001000     0x1b69
 *(.text)
 .text          0x0000000000001000        0x7 build/boot/kernel_entry.o
 .text          0x0000000000001007       0xef build/drivers/gs320200.o
                0x0000000000001007                gs320200_draw_point
                0x000000000000103e                gs320200_draw_rect
                0x00000000000010ac                gs320200_swap_buffers
                0x00000000000010d9                gs320200_get_offset
 .text          0x00000000000010f6       0xd1 build/drivers/keyboard.o
                0x000000000000116b                init_keyboard
                0x000000000000118a                add_keyboard_callback
 .text          0x00000000000011c7      0x488 build/drivers/ts8025.o
                0x00000000000011c7                ts8025_print_at
                0x0000000000001285                ts8025_print
                0x00000000000012a4                ts8025_print_backspace
                0x00000000000012f0                ts8025_print_char
                0x00000000000014a8                get_cursor_offset
                0x000000000000150c                set_cursor_offset
                0x000000000000157d                ts8025_clear_screen
                0x00000000000015e7                get_offset
                0x0000000000001606                get_offset_row
                0x0000000000001627                get_offset_col
 .text          0x000000000000164f       0x75 build/kernel/idt.o
                0x000000000000164f                set_idt_gate
                0x000000000000169f                set_idt
 .text          0x00000000000016c4      0x4dc build/kernel/isr.o
                0x00000000000016c4                isr_install
                0x0000000000001a78                isr_handler
                0x0000000000001ac3                register_interrupt_handler
                0x0000000000001ae4                irq_handler
                0x0000000000001b58                enable_interrupts
                0x0000000000001b63                add_isr_exception_callback
 .text          0x0000000000001ba0      0x16f build/kernel/kernel.o
                0x0000000000001ba0                update
                0x0000000000001c23                init_custom_callback
                0x0000000000001c8c                kernel_entry
                0x0000000000001caa                kernel_run_init_functions
 .text          0x0000000000001d0f      0x102 build/kernel/pic.o
                0x0000000000001d0f                pic_end_of_interrput
                0x0000000000001d52                pic_remap
 .text          0x0000000000001e11       0x8e build/kernel/ports.o
                0x0000000000001e11                inb
                0x0000000000001e32                outb
                0x0000000000001e57                inw
                0x0000000000001e7a                outw
 .text          0x0000000000001e9f       0xf5 build/kernel/timer.o
                0x0000000000001e9f                pit_add_tick_callback
                0x0000000000001f2c                pit_init_timer
 .text          0x0000000000001f94       0x72 build/libc/stdlib.o
                0x0000000000001f94                memncpy
                0x0000000000001fd8                memset
 .text          0x0000000000002006      0x5ea build/libc/string.o
                0x0000000000002006                int_to_ascii
                0x00000000000020c0                str_reverse
                0x000000000000212e                str_len
                0x0000000000002159                str_append
                0x0000000000002196                str_backspace
                0x00000000000021c5                str_cmp
                0x000000000000222c                str_equ
                0x000000000000229b                str_n_cmp
                0x000000000000230d                str_n_equ
                0x0000000000002387                str_count_c
                0x00000000000023d3                str_trim
                0x000000000000245a                str_cpy
                0x00000000000024a3                str_n_cpy
                0x00000000000024f7                str_cut_word
                0x000000000000256e                str_cut_word_n
 .text          0x00000000000025f0      0x367 build/shell/shell.o
                0x00000000000025f0                shell_print
                0x000000000000260b                shell_key_callback
                0x0000000000002710                shell_command_handler
                0x00000000000028b0                shell_print_in_hex
 *fill*         0x0000000000002957        0x9 
 .text          0x0000000000002960      0x209 build/kernel/interrupt.o
                0x00000000000029aa                isr0
                0x00000000000029b1                isr1
                0x00000000000029b8                isr2
                0x00000000000029bf                isr3
                0x00000000000029c6                isr4
                0x00000000000029cd                isr5
                0x00000000000029d4                isr6
                0x00000000000029db                isr7
                0x00000000000029e5                isr8
                0x00000000000029ed                isr9
                0x00000000000029f7                isr10
                0x00000000000029ff                isr11
                0x0000000000002a07                isr12
                0x0000000000002a0f                isr13
                0x0000000000002a17                isr14
                0x0000000000002a1f                isr15
                0x0000000000002a29                isr16
                0x0000000000002a33                isr17
                0x0000000000002a3d                isr18
                0x0000000000002a47                isr19
                0x0000000000002a51                isr20
                0x0000000000002a5b                isr21
                0x0000000000002a65                isr22
                0x0000000000002a6f                isr23
                0x0000000000002a79                isr24
                0x0000000000002a83                isr25
                0x0000000000002a8d                isr26
                0x0000000000002a97                isr27
                0x0000000000002aa1                isr28
                0x0000000000002aab                isr29
                0x0000000000002ab5                isr30
                0x0000000000002abf                isr31
                0x0000000000002ac9                irq0
                0x0000000000002ad3                irq1
                0x0000000000002add                irq2
                0x0000000000002ae7                irq3
                0x0000000000002af1                irq4
                0x0000000000002afb                irq5
                0x0000000000002b05                irq6
                0x0000000000002b0f                irq7
                0x0000000000002b19                irq8
                0x0000000000002b23                irq9
                0x0000000000002b2d                irq10
                0x0000000000002b37                irq11
                0x0000000000002b41                irq12
                0x0000000000002b4b                irq13
                0x0000000000002b55                irq14
                0x0000000000002b5f                irq15

.note.gnu.property
                0x0000000000002b6c      0x150
 .note.gnu.property
                0x0000000000002b6c       0x1c build/drivers/gs320200.o
 .note.gnu.property
                0x0000000000002b88       0x1c build/drivers/keyboard.o
 .note.gnu.property
                0x0000000000002ba4       0x1c build/drivers/ts8025.o
 .note.gnu.property
                0x0000000000002bc0       0x1c build/kernel/idt.o
 .note.gnu.property
                0x0000000000002bdc       0x1c build/kernel/isr.o
 .note.gnu.property
                0x0000000000002bf8       0x1c build/kernel/kernel.o
 .note.gnu.property
                0x0000000000002c14       0x1c build/kernel/pic.o
 .note.gnu.property
                0x0000000000002c30       0x1c build/kernel/ports.o
 .note.gnu.property
                0x0000000000002c4c       0x1c build/kernel/timer.o
 .note.gnu.property
                0x0000000000002c68       0x1c build/libc/stdlib.o
 .note.gnu.property
                0x0000000000002c84       0x1c build/libc/string.o
 .note.gnu.property
                0x0000000000002ca0       0x1c build/shell/shell.o

.eh_frame       0x0000000000002cbc      0x890
 .eh_frame      0x0000000000002cbc       0xa0 build/drivers/gs320200.o
 .eh_frame      0x0000000000002d5c       0x78 build/drivers/keyboard.o
 .eh_frame      0x0000000000002dd4      0x15c build/drivers/ts8025.o
 .eh_frame      0x0000000000002f30       0x58 build/kernel/idt.o
 .eh_frame      0x0000000000002f88       0xd8 build/kernel/isr.o
 .eh_frame      0x0000000000003060       0x98 build/kernel/kernel.o
 .eh_frame      0x00000000000030f8       0x58 build/kernel/pic.o
 .eh_frame      0x0000000000003150       0x98 build/kernel/ports.o
 .eh_frame      0x00000000000031e8       0x78 build/kernel/timer.o
 .eh_frame      0x0000000000003260       0x58 build/libc/stdlib.o
 .eh_frame      0x00000000000032b8      0x1fc build/libc/string.o
 .eh_frame      0x00000000000034b4       0x98 build/shell/shell.o

.rodata         0x0000000000003560      0x436
 .rodata        0x0000000000003560      0x1d9 build/drivers/keyboard.o
                0x00000000000036e0                scancode_ascii
 *fill*         0x0000000000003739        0x3 
 .rodata        0x000000000000373c      0x198 build/kernel/isr.o
 .rodata        0x00000000000038d4       0x43 build/kernel/kernel.o
 *fill*         0x0000000000003917        0x9 
 .rodata        0x0000000000003920       0x76 build/shell/shell.o
                0x0000000000003920                shell_commands

.data           0x00000000000039a0      0x220
 *(.data)
 .data          0x00000000000039a0        0x4 build/drivers/gs320200.o
                0x00000000000039a0                gs320200_back_buffer
 *fill*         0x00000000000039a4       0x1c 
 .data          0x00000000000039c0      0x164 build/drivers/keyboard.o
                0x00000000000039c0                scancode_name
 .data          0x0000000000003b24        0x0 build/drivers/ts8025.o
 .data          0x0000000000003b24        0x0 build/kernel/idt.o
 *fill*         0x0000000000003b24       0x1c 
 .data          0x0000000000003b40       0x80 build/kernel/isr.o
                0x0000000000003b40                exception_messages
 .data          0x0000000000003bc0        0x0 build/kernel/kernel.o
 .data          0x0000000000003bc0        0x0 build/kernel/pic.o
 .data          0x0000000000003bc0        0x0 build/kernel/ports.o
 .data          0x0000000000003bc0        0x0 build/kernel/timer.o
 .data          0x0000000000003bc0        0x0 build/libc/stdlib.o
 .data          0x0000000000003bc0        0x0 build/libc/string.o
 .data          0x0000000000003bc0        0x0 build/shell/shell.o

.bss            0x0000000000003bc0      0xf40
 *(.bss)
 .bss           0x0000000000003bc0        0x0 build/drivers/gs320200.o
 .bss           0x0000000000003bc0       0x81 build/drivers/keyboard.o
                0x0000000000003bc0                keyboard_callbacks
                0x0000000000003c40                keyboard_callback_count
 .bss           0x0000000000003c41        0x0 build/drivers/ts8025.o
 *fill*         0x0000000000003c41       0x1f 
 .bss           0x0000000000003c60      0x806 build/kernel/idt.o
                0x0000000000003c60                idt
                0x0000000000004460                idt_reg
 *fill*         0x0000000000004466       0x1a 
 .bss           0x0000000000004480      0x481 build/kernel/isr.o
                0x0000000000004480                interrupt_handlers
                0x0000000000004880                isr_exception_callbacks
                0x0000000000004900                isr_exception_callback_count
 *fill*         0x0000000000004901        0x3 
 .bss           0x0000000000004904        0x4 build/kernel/kernel.o
                0x0000000000004904                graphics_mode
 .bss           0x0000000000004908        0x0 build/kernel/pic.o
 .bss           0x0000000000004908        0x0 build/kernel/ports.o
 *fill*         0x0000000000004908       0x18 
 .bss           0x0000000000004920       0xa1 build/kernel/timer.o
                0x0000000000004920                tick
                0x0000000000004940                tick_callbacks
                0x00000000000049c0                tick_callbacks_count
 .bss           0x00000000000049c1        0x0 build/libc/stdlib.o
 .bss           0x00000000000049c1        0x0 build/libc/string.o
 *fill*         0x00000000000049c1       0x1f 
 .bss           0x00000000000049e0      0x120 build/shell/shell.o
                0x00000000000049e0                line_len
                0x0000000000004b00                __init_funcs = .

.init_fun       0x0000000000004b00       0x18
 *(.init_fun)
 .init_fun      0x0000000000004b00        0x8 build/drivers/keyboard.o
                0x0000000000004b00                init_keyboard_s
 .init_fun      0x0000000000004b08        0x8 build/kernel/isr.o
                0x0000000000004b08                isr_install_s
 .init_fun      0x0000000000004b10        0x8 build/kernel/timer.o
                0x0000000000004b10                pit_init_timer_s
                0x0000000000004b18                __init_funcs_end = .
LOAD build/boot/kernel_entry.o
LOAD build/drivers/gs320200.o
LOAD build/drivers/keyboard.o
LOAD build/drivers/ts8025.o
LOAD build/kernel/idt.o
LOAD build/kernel/isr.o
LOAD build/kernel/kernel.o
LOAD build/kernel/pic.o
LOAD build/kernel/ports.o
LOAD build/kernel/timer.o
LOAD build/libc/stdlib.o
LOAD build/libc/string.o
LOAD build/shell/shell.o
LOAD build/kernel/interrupt.o
OUTPUT(build/kernel.bin binary)

.debug_info     0x0000000000000000     0x20b9
 .debug_info    0x0000000000000000      0x1c9 build/drivers/gs320200.o
 .debug_info    0x00000000000001c9      0x371 build/drivers/keyboard.o
 .debug_info    0x000000000000053a      0x31f build/drivers/ts8025.o
 .debug_info    0x0000000000000859      0x15c build/kernel/idt.o
 .debug_info    0x00000000000009b5      0x669 build/kernel/isr.o
 .debug_info    0x000000000000101e      0x2dd build/kernel/kernel.o
 .debug_info    0x00000000000012fb       0xda build/kernel/pic.o
 .debug_info    0x00000000000013d5      0x130 build/kernel/ports.o
 .debug_info    0x0000000000001505      0x32a build/kernel/timer.o
 .debug_info    0x000000000000182f      0x127 build/libc/stdlib.o
 .debug_info    0x0000000000001956      0x43f build/libc/string.o
 .debug_info    0x0000000000001d95      0x324 build/shell/shell.o

.debug_abbrev   0x0000000000000000      0xf41
 .debug_abbrev  0x0000000000000000      0x137 build/drivers/gs320200.o
 .debug_abbrev  0x0000000000000137      0x1b3 build/drivers/keyboard.o
 .debug_abbrev  0x00000000000002ea      0x182 build/drivers/ts8025.o
 .debug_abbrev  0x000000000000046c      0x10a build/kernel/idt.o
 .debug_abbrev  0x0000000000000576      0x1f2 build/kernel/isr.o
 .debug_abbrev  0x0000000000000768      0x1b1 build/kernel/kernel.o
 .debug_abbrev  0x0000000000000919       0xae build/kernel/pic.o
 .debug_abbrev  0x00000000000009c7       0xb4 build/kernel/ports.o
 .debug_abbrev  0x0000000000000a7b      0x199 build/kernel/timer.o
 .debug_abbrev  0x0000000000000c14       0xd1 build/libc/stdlib.o
 .debug_abbrev  0x0000000000000ce5       0xf4 build/libc/string.o
 .debug_abbrev  0x0000000000000dd9      0x168 build/shell/shell.o

.debug_aranges  0x0000000000000000      0x180
 .debug_aranges
                0x0000000000000000       0x20 build/drivers/gs320200.o
 .debug_aranges
                0x0000000000000020       0x20 build/drivers/keyboard.o
 .debug_aranges
                0x0000000000000040       0x20 build/drivers/ts8025.o
 .debug_aranges
                0x0000000000000060       0x20 build/kernel/idt.o
 .debug_aranges
                0x0000000000000080       0x20 build/kernel/isr.o
 .debug_aranges
                0x00000000000000a0       0x20 build/kernel/kernel.o
 .debug_aranges
                0x00000000000000c0       0x20 build/kernel/pic.o
 .debug_aranges
                0x00000000000000e0       0x20 build/kernel/ports.o
 .debug_aranges
                0x0000000000000100       0x20 build/kernel/timer.o
 .debug_aranges
                0x0000000000000120       0x20 build/libc/stdlib.o
 .debug_aranges
                0x0000000000000140       0x20 build/libc/string.o
 .debug_aranges
                0x0000000000000160       0x20 build/shell/shell.o

.debug_line     0x0000000000000000      0xecc
 .debug_line    0x0000000000000000       0xbe build/drivers/gs320200.o
 .debug_line    0x00000000000000be       0xc9 build/drivers/keyboard.o
 .debug_line    0x0000000000000187      0x252 build/drivers/ts8025.o
 .debug_line    0x00000000000003d9       0x85 build/kernel/idt.o
 .debug_line    0x000000000000045e      0x153 build/kernel/isr.o
 .debug_line    0x00000000000005b1      0x13a build/kernel/kernel.o
 .debug_line    0x00000000000006eb       0x86 build/kernel/pic.o
 .debug_line    0x0000000000000771       0x7d build/kernel/ports.o
 .debug_line    0x00000000000007ee       0xc8 build/kernel/timer.o
 .debug_line    0x00000000000008b6       0xb1 build/libc/stdlib.o
 .debug_line    0x0000000000000967      0x3d4 build/libc/string.o
 .debug_line    0x0000000000000d3b      0x191 build/shell/shell.o

.debug_str      0x0000000000000000     0x17cd
 .debug_str     0x0000000000000000      0x177 build/drivers/gs320200.o
 .debug_str     0x0000000000000177      0x2c0 build/drivers/keyboard.o
 .debug_str     0x0000000000000437      0x1cb build/drivers/ts8025.o
 .debug_str     0x0000000000000602      0x14e build/kernel/idt.o
 .debug_str     0x0000000000000750      0x41c build/kernel/isr.o
 .debug_str     0x0000000000000b6c      0x2d4 build/kernel/kernel.o
 .debug_str     0x0000000000000e40      0x112 build/kernel/pic.o
 .debug_str     0x0000000000000f52       0xfa build/kernel/ports.o
 .debug_str     0x000000000000104c      0x291 build/kernel/timer.o
 .debug_str     0x00000000000012dd      0x114 build/libc/stdlib.o
 .debug_str     0x00000000000013f1      0x196 build/libc/string.o
 .debug_str     0x0000000000001587      0x246 build/shell/shell.o

.debug_line_str
                0x0000000000000000      0x8a1
 .debug_line_str
                0x0000000000000000       0xad build/drivers/gs320200.o
 .debug_line_str
                0x00000000000000ad       0xe5 build/drivers/keyboard.o
 .debug_line_str
                0x0000000000000192       0xbe build/drivers/ts8025.o
 .debug_line_str
                0x0000000000000250       0xa8 build/kernel/idt.o
 .debug_line_str
                0x00000000000002f8       0xbd build/kernel/isr.o
 .debug_line_str
                0x00000000000003b5       0xf8 build/kernel/kernel.o
 .debug_line_str
                0x00000000000004ad       0xaa build/kernel/pic.o
 .debug_line_str
                0x0000000000000557       0x99 build/kernel/ports.o
 .debug_line_str
                0x00000000000005f0       0xc7 build/kernel/timer.o
 .debug_line_str
                0x00000000000006b7       0x98 build/libc/stdlib.o
 .debug_line_str
                0x000000000000074f       0x83 build/libc/string.o
 .debug_line_str
                0x00000000000007d2       0xcf build/shell/shell.o

.comment        0x0000000000000000      0x210
 .comment       0x0000000000000000       0x2c build/drivers/gs320200.o
 .comment       0x000000000000002c       0x2c build/drivers/keyboard.o
 .comment       0x0000000000000058       0x2c build/drivers/ts8025.o
 .comment       0x0000000000000084       0x2c build/kernel/idt.o
 .comment       0x00000000000000b0       0x2c build/kernel/isr.o
 .comment       0x00000000000000dc       0x2c build/kernel/kernel.o
 .comment       0x0000000000000108       0x2c build/kernel/pic.o
 .comment       0x0000000000000134       0x2c build/kernel/ports.o
 .comment       0x0000000000000160       0x2c build/kernel/timer.o
 .comment       0x000000000000018c       0x2c build/libc/stdlib.o
 .comment       0x00000000000001b8       0x2c build/libc/string.o
 .comment       0x00000000000001e4       0x2c build/shell/shell.o

.note.GNU-stack
                0x0000000000000000        0x0
 .note.GNU-stack
                0x0000000000000000        0x0 build/drivers/gs320200.o
 .note.GNU-stack
                0x0000000000000000        0x0 build/drivers/keyboard.o
 .note.GNU-stack
                0x0000000000000000        0x0 build/drivers/ts8025.o
 .note.GNU-stack
                0x0000000000000000        0x0 build/kernel/idt.o
 .note.GNU-stack
                0x0000000000000000        0x0 build/kernel/isr.o
 .note.GNU-stack
                0x0000000000000000        0x0 build/kernel/kernel.o
 .note.GNU-stack
                0x0000000000000000        0x0 build/kernel/pic.o
 .note.GNU-stack
                0x0000000000000000        0x0 build/kernel/ports.o
 .note.GNU-stack
                0x0000000000000000        0x0 build/kernel/timer.o
 .note.GNU-stack
                0x0000000000000000        0x0 build/libc/stdlib.o
 .note.GNU-stack
                0x0000000000000000        0x0 build/libc/string.o
 .note.GNU-stack
                0x0000000000000000        0x0 build/shell/shell.o
