
Memory Configuration

Name             Origin             Length             Attributes
*default*        0x0000000000000000 0xffffffffffffffff

Linker script and memory map

                0x0000000000001000                . = 0x1000

.text           0x0000000000001000     0x1e19
 *(.text)
 .text          0x0000000000001000        0x7 build/boot/kernel_entry.o
 .text          0x0000000000001007       0xef build/drivers/gs320200.o
                0x0000000000001007                gs320200_draw_point
                0x000000000000103e                gs320200_draw_rect
                0x00000000000010ac                gs320200_swap_buffers
                0x00000000000010d9                gs320200_get_offset
 .text          0x00000000000010f6       0xd1 build/drivers/keyboard.o
                0x000000000000116b                init_keyboard
                0x000000000000118a                add_keyboard_callback
 .text          0x00000000000011c7      0x488 build/drivers/ts8025.o
                0x00000000000011c7                ts8025_print_at
                0x0000000000001285                ts8025_print
                0x00000000000012a4                ts8025_print_backspace
                0x00000000000012f0                ts8025_print_char
                0x00000000000014a8                get_cursor_offset
                0x000000000000150c                set_cursor_offset
                0x000000000000157d                ts8025_clear_screen
                0x00000000000015e7                get_offset
                0x0000000000001606                get_offset_row
                0x0000000000001627                get_offset_col
 .text          0x000000000000164f       0x75 build/kernel/idt.o
                0x000000000000164f                set_idt_gate
                0x000000000000169f                set_idt
 .text          0x00000000000016c4      0x4dc build/kernel/isr.o
                0x00000000000016c4                isr_install
                0x0000000000001a78                isr_handler
                0x0000000000001ac3                register_interrupt_handler
                0x0000000000001ae4                irq_handler
                0x0000000000001b58                enable_interrupts
                0x0000000000001b63                add_isr_exception_callback
 .text          0x0000000000001ba0      0x16f build/kernel/kernel.o
                0x0000000000001ba0                update
                0x0000000000001c23                init_custom_callback
                0x0000000000001c8c                kernel_entry
                0x0000000000001caa                kernel_run_init_functions
 .text          0x0000000000001d0f      0x2b7 build/kernel/memory.o
                0x0000000000001d0f                initialize_memory
                0x0000000000001d4c                split_memory_block_t
                0x0000000000001dec                find_free_memory_block_t
                0x0000000000001e9f                buddy_allocate
                0x0000000000001eff                buddy_free
 .text          0x0000000000001fc6      0x102 build/kernel/pic.o
                0x0000000000001fc6                pic_end_of_interrput
                0x0000000000002009                pic_remap
 .text          0x00000000000020c8       0x8e build/kernel/ports.o
                0x00000000000020c8                inb
                0x00000000000020e9                outb
                0x000000000000210e                inw
                0x0000000000002131                outw
 .text          0x0000000000002156       0xf5 build/kernel/timer.o
                0x0000000000002156                pit_add_tick_callback
                0x00000000000021e3                pit_init_timer
 .text          0x000000000000224b       0x72 build/libc/stdlib.o
                0x000000000000224b                memncpy
                0x000000000000228f                memset
 .text          0x00000000000022bd      0x5ea build/libc/string.o
                0x00000000000022bd                int_to_ascii
                0x0000000000002377                str_reverse
                0x00000000000023e5                str_len
                0x0000000000002410                str_append
                0x000000000000244d                str_backspace
                0x000000000000247c                str_cmp
                0x00000000000024e3                str_equ
                0x0000000000002552                str_n_cmp
                0x00000000000025c4                str_n_equ
                0x000000000000263e                str_count_c
                0x000000000000268a                str_trim
                0x0000000000002711                str_cpy
                0x000000000000275a                str_n_cpy
                0x00000000000027ae                str_cut_word
                0x0000000000002825                str_cut_word_n
 .text          0x00000000000028a7      0x367 build/shell/shell.o
                0x00000000000028a7                shell_print
                0x00000000000028c2                shell_key_callback
                0x00000000000029c7                shell_command_handler
                0x0000000000002b67                shell_print_in_hex
 *fill*         0x0000000000002c0e        0x2 
 .text          0x0000000000002c10      0x209 build/kernel/interrupt.o
                0x0000000000002c5a                isr0
                0x0000000000002c61                isr1
                0x0000000000002c68                isr2
                0x0000000000002c6f                isr3
                0x0000000000002c76                isr4
                0x0000000000002c7d                isr5
                0x0000000000002c84                isr6
                0x0000000000002c8b                isr7
                0x0000000000002c95                isr8
                0x0000000000002c9d                isr9
                0x0000000000002ca7                isr10
                0x0000000000002caf                isr11
                0x0000000000002cb7                isr12
                0x0000000000002cbf                isr13
                0x0000000000002cc7                isr14
                0x0000000000002ccf                isr15
                0x0000000000002cd9                isr16
                0x0000000000002ce3                isr17
                0x0000000000002ced                isr18
                0x0000000000002cf7                isr19
                0x0000000000002d01                isr20
                0x0000000000002d0b                isr21
                0x0000000000002d15                isr22
                0x0000000000002d1f                isr23
                0x0000000000002d29                isr24
                0x0000000000002d33                isr25
                0x0000000000002d3d                isr26
                0x0000000000002d47                isr27
                0x0000000000002d51                isr28
                0x0000000000002d5b                isr29
                0x0000000000002d65                isr30
                0x0000000000002d6f                isr31
                0x0000000000002d79                irq0
                0x0000000000002d83                irq1
                0x0000000000002d8d                irq2
                0x0000000000002d97                irq3
                0x0000000000002da1                irq4
                0x0000000000002dab                irq5
                0x0000000000002db5                irq6
                0x0000000000002dbf                irq7
                0x0000000000002dc9                irq8
                0x0000000000002dd3                irq9
                0x0000000000002ddd                irq10
                0x0000000000002de7                irq11
                0x0000000000002df1                irq12
                0x0000000000002dfb                irq13
                0x0000000000002e05                irq14
                0x0000000000002e0f                irq15

.note.gnu.property
                0x0000000000002e1c      0x16c
 .note.gnu.property
                0x0000000000002e1c       0x1c build/drivers/gs320200.o
 .note.gnu.property
                0x0000000000002e38       0x1c build/drivers/keyboard.o
 .note.gnu.property
                0x0000000000002e54       0x1c build/drivers/ts8025.o
 .note.gnu.property
                0x0000000000002e70       0x1c build/kernel/idt.o
 .note.gnu.property
                0x0000000000002e8c       0x1c build/kernel/isr.o
 .note.gnu.property
                0x0000000000002ea8       0x1c build/kernel/kernel.o
 .note.gnu.property
                0x0000000000002ec4       0x1c build/kernel/memory.o
 .note.gnu.property
                0x0000000000002ee0       0x1c build/kernel/pic.o
 .note.gnu.property
                0x0000000000002efc       0x1c build/kernel/ports.o
 .note.gnu.property
                0x0000000000002f18       0x1c build/kernel/timer.o
 .note.gnu.property
                0x0000000000002f34       0x1c build/libc/stdlib.o
 .note.gnu.property
                0x0000000000002f50       0x1c build/libc/string.o
 .note.gnu.property
                0x0000000000002f6c       0x1c build/shell/shell.o

.eh_frame       0x0000000000002f88      0x948
 .eh_frame      0x0000000000002f88       0xa0 build/drivers/gs320200.o
 .eh_frame      0x0000000000003028       0x78 build/drivers/keyboard.o
 .eh_frame      0x00000000000030a0      0x15c build/drivers/ts8025.o
 .eh_frame      0x00000000000031fc       0x58 build/kernel/idt.o
 .eh_frame      0x0000000000003254       0xd8 build/kernel/isr.o
 .eh_frame      0x000000000000332c       0x98 build/kernel/kernel.o
 .eh_frame      0x00000000000033c4       0xb8 build/kernel/memory.o
 .eh_frame      0x000000000000347c       0x58 build/kernel/pic.o
 .eh_frame      0x00000000000034d4       0x98 build/kernel/ports.o
 .eh_frame      0x000000000000356c       0x78 build/kernel/timer.o
 .eh_frame      0x00000000000035e4       0x58 build/libc/stdlib.o
 .eh_frame      0x000000000000363c      0x1fc build/libc/string.o
 .eh_frame      0x0000000000003838       0x98 build/shell/shell.o

.rodata         0x00000000000038e0      0x436
 .rodata        0x00000000000038e0      0x1d9 build/drivers/keyboard.o
                0x0000000000003a60                scancode_ascii
 *fill*         0x0000000000003ab9        0x3 
 .rodata        0x0000000000003abc      0x198 build/kernel/isr.o
 .rodata        0x0000000000003c54       0x43 build/kernel/kernel.o
 *fill*         0x0000000000003c97        0x9 
 .rodata        0x0000000000003ca0       0x76 build/shell/shell.o
                0x0000000000003ca0                shell_commands

.data           0x0000000000003d20      0x220
 *(.data)
 .data          0x0000000000003d20        0x4 build/drivers/gs320200.o
                0x0000000000003d20                gs320200_back_buffer
 *fill*         0x0000000000003d24       0x1c 
 .data          0x0000000000003d40      0x164 build/drivers/keyboard.o
                0x0000000000003d40                scancode_name
 .data          0x0000000000003ea4        0x0 build/drivers/ts8025.o
 .data          0x0000000000003ea4        0x0 build/kernel/idt.o
 *fill*         0x0000000000003ea4       0x1c 
 .data          0x0000000000003ec0       0x80 build/kernel/isr.o
                0x0000000000003ec0                exception_messages
 .data          0x0000000000003f40        0x0 build/kernel/kernel.o
 .data          0x0000000000003f40        0x0 build/kernel/memory.o
 .data          0x0000000000003f40        0x0 build/kernel/pic.o
 .data          0x0000000000003f40        0x0 build/kernel/ports.o
 .data          0x0000000000003f40        0x0 build/kernel/timer.o
 .data          0x0000000000003f40        0x0 build/libc/stdlib.o
 .data          0x0000000000003f40        0x0 build/libc/string.o
 .data          0x0000000000003f40        0x0 build/shell/shell.o

.bss            0x0000000000003f40      0xf40
 *(.bss)
 .bss           0x0000000000003f40        0x0 build/drivers/gs320200.o
 .bss           0x0000000000003f40       0x81 build/drivers/keyboard.o
                0x0000000000003f40                keyboard_callbacks
                0x0000000000003fc0                keyboard_callback_count
 .bss           0x0000000000003fc1        0x0 build/drivers/ts8025.o
 *fill*         0x0000000000003fc1       0x1f 
 .bss           0x0000000000003fe0      0x806 build/kernel/idt.o
                0x0000000000003fe0                idt
                0x00000000000047e0                idt_reg
 *fill*         0x00000000000047e6       0x1a 
 .bss           0x0000000000004800      0x481 build/kernel/isr.o
                0x0000000000004800                interrupt_handlers
                0x0000000000004c00                isr_exception_callbacks
                0x0000000000004c80                isr_exception_callback_count
 *fill*         0x0000000000004c81        0x3 
 .bss           0x0000000000004c84        0x4 build/kernel/kernel.o
                0x0000000000004c84                graphics_mode
 .bss           0x0000000000004c88        0x4 build/kernel/memory.o
                0x0000000000004c88                root
 .bss           0x0000000000004c8c        0x0 build/kernel/pic.o
 .bss           0x0000000000004c8c        0x0 build/kernel/ports.o
 *fill*         0x0000000000004c8c       0x14 
 .bss           0x0000000000004ca0       0xa1 build/kernel/timer.o
                0x0000000000004ca0                tick
                0x0000000000004cc0                tick_callbacks
                0x0000000000004d40                tick_callbacks_count
 .bss           0x0000000000004d41        0x0 build/libc/stdlib.o
 .bss           0x0000000000004d41        0x0 build/libc/string.o
 *fill*         0x0000000000004d41       0x1f 
 .bss           0x0000000000004d60      0x120 build/shell/shell.o
                0x0000000000004d60                line_len
                0x0000000000004e80                __init_funcs = .

.init_fun       0x0000000000004e80       0x18
 *(.init_fun)
 .init_fun      0x0000000000004e80        0x8 build/drivers/keyboard.o
                0x0000000000004e80                init_keyboard_s
 .init_fun      0x0000000000004e88        0x8 build/kernel/isr.o
                0x0000000000004e88                isr_install_s
 .init_fun      0x0000000000004e90        0x8 build/kernel/timer.o
                0x0000000000004e90                pit_init_timer_s
                0x0000000000004e98                __init_funcs_end = .
LOAD build/boot/kernel_entry.o
LOAD build/drivers/gs320200.o
LOAD build/drivers/keyboard.o
LOAD build/drivers/ts8025.o
LOAD build/kernel/idt.o
LOAD build/kernel/isr.o
LOAD build/kernel/kernel.o
LOAD build/kernel/memory.o
LOAD build/kernel/pic.o
LOAD build/kernel/ports.o
LOAD build/kernel/timer.o
LOAD build/libc/stdlib.o
LOAD build/libc/string.o
LOAD build/shell/shell.o
LOAD build/kernel/interrupt.o
OUTPUT(build/kernel.bin binary)

.comment        0x0000000000000000      0x23c
 .comment       0x0000000000000000       0x2c build/drivers/gs320200.o
 .comment       0x000000000000002c       0x2c build/drivers/keyboard.o
 .comment       0x0000000000000058       0x2c build/drivers/ts8025.o
 .comment       0x0000000000000084       0x2c build/kernel/idt.o
 .comment       0x00000000000000b0       0x2c build/kernel/isr.o
 .comment       0x00000000000000dc       0x2c build/kernel/kernel.o
 .comment       0x0000000000000108       0x2c build/kernel/memory.o
 .comment       0x0000000000000134       0x2c build/kernel/pic.o
 .comment       0x0000000000000160       0x2c build/kernel/ports.o
 .comment       0x000000000000018c       0x2c build/kernel/timer.o
 .comment       0x00000000000001b8       0x2c build/libc/stdlib.o
 .comment       0x00000000000001e4       0x2c build/libc/string.o
 .comment       0x0000000000000210       0x2c build/shell/shell.o

.note.GNU-stack
                0x0000000000000000        0x0
 .note.GNU-stack
                0x0000000000000000        0x0 build/drivers/gs320200.o
 .note.GNU-stack
                0x0000000000000000        0x0 build/drivers/keyboard.o
 .note.GNU-stack
                0x0000000000000000        0x0 build/drivers/ts8025.o
 .note.GNU-stack
                0x0000000000000000        0x0 build/kernel/idt.o
 .note.GNU-stack
                0x0000000000000000        0x0 build/kernel/isr.o
 .note.GNU-stack
                0x0000000000000000        0x0 build/kernel/kernel.o
 .note.GNU-stack
                0x0000000000000000        0x0 build/kernel/memory.o
 .note.GNU-stack
                0x0000000000000000        0x0 build/kernel/pic.o
 .note.GNU-stack
                0x0000000000000000        0x0 build/kernel/ports.o
 .note.GNU-stack
                0x0000000000000000        0x0 build/kernel/timer.o
 .note.GNU-stack
                0x0000000000000000        0x0 build/libc/stdlib.o
 .note.GNU-stack
                0x0000000000000000        0x0 build/libc/string.o
 .note.GNU-stack
                0x0000000000000000        0x0 build/shell/shell.o
